; Function Attrs: mustprogress nounwind null_pointer_is_valid sspstrong uwtable
define noundef zeroext i1 @_ZNK19DissectorTablesItem8lessThanERS_(ptr noundef readonly align 8 captures(none) dereferenceable_or_null(88) %0, ptr noundef readonly align 8 captures(none) dereferenceable(88) %1) unnamed_addr #1 align 2 personality ptr @__gxx_personality_v0 {
  %3 = alloca %class.QString, align 8
  %4 = alloca %class.QString, align 8
  call void @llvm.lifetime.start.p0(i64 24, ptr nonnull %3) #22
  tail call void @llvm.experimental.noalias.scope.decl(metadata !6)
  %5 = getelementptr inbounds nuw i8, ptr %0, i64 40
  %6 = load ptr, ptr %5, align 8, !noalias !6
  store ptr %6, ptr %3, align 8, !alias.scope !6
  %7 = getelementptr inbounds nuw i8, ptr %3, i64 8
  %8 = getelementptr inbounds nuw i8, ptr %0, i64 48
  %9 = load ptr, ptr %8, align 8, !noalias !6
  store ptr %9, ptr %7, align 8, !alias.scope !6
  %10 = getelementptr inbounds nuw i8, ptr %3, i64 16
  %11 = getelementptr inbounds nuw i8, ptr %0, i64 56
  %12 = load i64, ptr %11, align 8, !noalias !6
  store i64 %12, ptr %10, align 8, !alias.scope !6
  %.not.i.i.i.i = icmp eq ptr %6, null
  br i1 %.not.i.i.i.i, label %_ZNK19DissectorTablesItem9tableNameEv.exit, label %13

13:                                               ; preds = %2
  %14 = atomicrmw add ptr %6, i32 1 seq_cst, align 4, !noalias !6
  br label %_ZNK19DissectorTablesItem9tableNameEv.exit

_ZNK19DissectorTablesItem9tableNameEv.exit:       ; preds = %2, %13
  call void @llvm.lifetime.start.p0(i64 24, ptr nonnull %4) #22
  tail call void @llvm.experimental.noalias.scope.decl(metadata !9)
  %15 = getelementptr inbounds nuw i8, ptr %1, i64 40
  %16 = load ptr, ptr %15, align 8, !noalias !9
  store ptr %16, ptr %4, align 8, !alias.scope !9
  %17 = getelementptr inbounds nuw i8, ptr %4, i64 8
  %18 = getelementptr inbounds nuw i8, ptr %1, i64 48
  %19 = load ptr, ptr %18, align 8, !noalias !9
  store ptr %19, ptr %17, align 8, !alias.scope !9
  %20 = getelementptr inbounds nuw i8, ptr %4, i64 16
  %21 = getelementptr inbounds nuw i8, ptr %1, i64 56
  %22 = load i64, ptr %21, align 8, !noalias !9
  store i64 %22, ptr %20, align 8, !alias.scope !9
  %.not.i.i.i.i3 = icmp eq ptr %16, null
  br i1 %.not.i.i.i.i3, label %_ZNK19DissectorTablesItem9tableNameEv.exit4, label %23

23:                                               ; preds = %_ZNK19DissectorTablesItem9tableNameEv.exit
  %24 = atomicrmw add ptr %16, i32 1 seq_cst, align 4, !noalias !9
  br label %_ZNK19DissectorTablesItem9tableNameEv.exit4

_ZNK19DissectorTablesItem9tableNameEv.exit4:      ; preds = %_ZNK19DissectorTablesItem9tableNameEv.exit, %23
  %25 = call noundef i32 @_ZNK7QString7compareERKS_N2Qt15CaseSensitivityE(ptr noundef nonnull align 8 dereferenceable_or_null(24) %3, ptr noundef nonnull align 8 dereferenceable(24) %4, i32 noundef 0) #22
  %26 = load ptr, ptr %4, align 8
  %.not.i.i.i = icmp eq ptr %26, null
  br i1 %.not.i.i.i, label %_ZN7QStringD2Ev.exit, label %_ZN17QArrayDataPointerIDsE5derefEv.exit.i.i

_ZN17QArrayDataPointerIDsE5derefEv.exit.i.i:      ; preds = %_ZNK19DissectorTablesItem9tableNameEv.exit4
  %27 = atomicrmw sub ptr %26, i32 1 seq_cst, align 4
  %.not.i.i = icmp eq i32 %27, 1
  br i1 %.not.i.i, label %28, label %_ZN7QStringD2Ev.exit

28:                                               ; preds = %_ZN17QArrayDataPointerIDsE5derefEv.exit.i.i
  %29 = load ptr, ptr %4, align 8
  call void @_ZN10QArrayData10deallocateEPS_xx(ptr noundef %29, i64 noundef 2, i64 noundef 8) #22
  br label %_ZN7QStringD2Ev.exit

_ZN7QStringD2Ev.exit:                             ; preds = %_ZNK19DissectorTablesItem9tableNameEv.exit4, %_ZN17QArrayDataPointerIDsE5derefEv.exit.i.i, %28
  call void @llvm.lifetime.end.p0(i64 24, ptr nonnull %4) #22
  %30 = load ptr, ptr %3, align 8
  %.not.i.i.i5 = icmp eq ptr %30, null
  br i1 %.not.i.i.i5, label %_ZN7QStringD2Ev.exit8, label %_ZN17QArrayDataPointerIDsE5derefEv.exit.i.i6

_ZN17QArrayDataPointerIDsE5derefEv.exit.i.i6:     ; preds = %_ZN7QStringD2Ev.exit
  %31 = atomicrmw sub ptr %30, i32 1 seq_cst, align 4
  %.not.i.i7 = icmp eq i32 %31, 1
  br i1 %.not.i.i7, label %32, label %_ZN7QStringD2Ev.exit8

32:                                               ; preds = %_ZN17QArrayDataPointerIDsE5derefEv.exit.i.i6
  %33 = load ptr, ptr %3, align 8
  call void @_ZN10QArrayData10deallocateEPS_xx(ptr noundef %33, i64 noundef 2, i64 noundef 8) #22
  br label %_ZN7QStringD2Ev.exit8

_ZN7QStringD2Ev.exit8:                            ; preds = %_ZN7QStringD2Ev.exit, %_ZN17QArrayDataPointerIDsE5derefEv.exit.i.i6, %32
  %34 = icmp slt i32 %25, 0
  call void @llvm.lifetime.end.p0(i64 24, ptr nonnull %3) #22
  ret i1 %34
}